target datalayout = "e-m:e-p270:32:32-p271:32:32-p272:64:64-i64:64-i128:128-f80:128-n8:16:32:64-S128"
target triple = "x86_64-pc-linux-gnu"

%"struct.faiss::Level1Quantizer" = type { ptr, i64, i8, i8, [6 x i8], %"struct.faiss::ClusteringParameters", ptr }
%"struct.faiss::ClusteringParameters" = type <{ i32, i32, i8, i8, i8, i8, i8, [3 x i8], i32, i32, i32, [4 x i8], i64, i8, i8, [6 x i8] }>

; Function Attrs: mustprogress uwtable
define void @_ZNK5faiss10IndexIVFPQ15encode_multipleEmPlPKfPhb(ptr noundef nonnull align 8 dereferenceable(544) %0, i64 noundef %1, ptr noundef %2, ptr noundef %3, ptr noundef %4, i1 noundef zeroext %5) #2 align 2 {
  %7 = alloca ptr, align 8
  %8 = alloca i64, align 8
  %9 = alloca ptr, align 8
  %10 = alloca ptr, align 8
  %11 = alloca ptr, align 8
  %12 = alloca i8, align 1
  store ptr %0, ptr %7, align 8, !tbaa !4
  store i64 %1, ptr %8, align 8, !tbaa !11
  store ptr %2, ptr %9, align 8, !tbaa !17
  store ptr %3, ptr %10, align 8, !tbaa !15
  store ptr %4, ptr %11, align 8, !tbaa !13
  %13 = zext i1 %5 to i8
  store i8 %13, ptr %12, align 1, !tbaa !20
  %14 = load ptr, ptr %7, align 8
  %15 = load i8, ptr %12, align 1, !tbaa !20, !range !45, !noundef !46
  %16 = trunc i8 %15 to i1
  br i1 %16, label %17, label %27

17:                                               ; preds = %6
  %18 = getelementptr inbounds i8, ptr %14, i64 48
  %19 = getelementptr inbounds nuw %"struct.faiss::Level1Quantizer", ptr %18, i32 0, i32 0
  %20 = load ptr, ptr %19, align 8, !tbaa !47
  %21 = load i64, ptr %8, align 8, !tbaa !11
  %22 = load ptr, ptr %10, align 8, !tbaa !15
  %23 = load ptr, ptr %9, align 8, !tbaa !17
  %24 = load ptr, ptr %20, align 8, !tbaa !9
  %25 = getelementptr inbounds ptr, ptr %24, i64 7
  %26 = load ptr, ptr %25, align 8
  call void %26(ptr noundef nonnull align 8 dereferenceable(36) %20, i64 noundef %21, ptr noundef %22, ptr noundef %23, i64 noundef 1)
  br label %27

27:                                               ; preds = %17, %6
  %28 = load i64, ptr %8, align 8, !tbaa !11
  %29 = load ptr, ptr %10, align 8, !tbaa !15
  %30 = load ptr, ptr %9, align 8, !tbaa !17
  %31 = load ptr, ptr %11, align 8, !tbaa !13
  %32 = load ptr, ptr %14, align 8, !tbaa !9
  %33 = getelementptr inbounds ptr, ptr %32, i64 24
  %34 = load ptr, ptr %33, align 8
  call void %34(ptr noundef nonnull align 8 dereferenceable(544) %14, i64 noundef %28, ptr noundef %29, ptr noundef %30, ptr noundef %31, i1 noundef zeroext false)
  ret void
}