; Function Attrs: mustprogress uwtable
define void @_ZNK5faiss10IndexIVFPQ15encode_multipleEmPlPKfPhb(ptr noundef nonnull align 8 dereferenceable(544) %0, i64 noundef %1, ptr noundef %2, ptr noundef %3, ptr noundef %4, i1 noundef zeroext %5) local_unnamed_addr #2 align 2 {
  br i1 %5, label %7, label %13

7:                                                ; preds = %6
  %8 = getelementptr inbounds nuw i8, ptr %0, i64 48
  %9 = load ptr, ptr %8, align 8, !tbaa !47
  %10 = load ptr, ptr %9, align 8, !tbaa !4
  %11 = getelementptr inbounds nuw i8, ptr %10, i64 56
  %12 = load ptr, ptr %11, align 8
  tail call void %12(ptr noundef nonnull align 8 dereferenceable(36) %9, i64 noundef %1, ptr noundef %3, ptr noundef %2, i64 noundef 1)
  br label %13

13:                                               ; preds = %7, %6
  %14 = load ptr, ptr %0, align 8, !tbaa !4
  %15 = getelementptr inbounds nuw i8, ptr %14, i64 192
  %16 = load ptr, ptr %15, align 8
  tail call void %16(ptr noundef nonnull align 8 dereferenceable(544) %0, i64 noundef %1, ptr noundef %3, ptr noundef %2, ptr noundef %4, i1 noundef zeroext false)
  ret void
}